target datalayout = "e-m:e-p270:32:32-p271:32:32-p272:64:64-i64:64-i128:128-f80:128-n8:16:32:64-S128"
target triple = "x86_64-pc-linux-gnu"

; Function Attrs: nounwind uwtable
define dso_local i64 @Curl_getdate_capped(ptr noundef %0) #0 {
  %2 = alloca i64, align 8
  %3 = alloca ptr, align 8
  %4 = alloca i64, align 8
  %5 = alloca i32, align 4
  store ptr %0, ptr %3, align 8
  store i64 -1, ptr %4, align 8
  %6 = load ptr, ptr %3, align 8
  %7 = call i32 @parsedate(ptr noundef %6, ptr noundef %4)
  store i32 %7, ptr %5, align 4
  %8 = load i32, ptr %5, align 4
  switch i32 %8, label %19 [
    i32 0, label %9
    i32 1, label %17
  ]

9:                                                ; preds = %1
  %10 = load i64, ptr %4, align 8
  %11 = icmp eq i64 %10, -1
  br i1 %11, label %12, label %15

12:                                               ; preds = %9
  %13 = load i64, ptr %4, align 8
  %14 = add nsw i64 %13, 1
  store i64 %14, ptr %4, align 8
  br label %15

15:                                               ; preds = %12, %9
  %16 = load i64, ptr %4, align 8
  store i64 %16, ptr %2, align 8
  br label %20

17:                                               ; preds = %1
  %18 = load i64, ptr %4, align 8
  store i64 %18, ptr %2, align 8
  br label %20

19:                                               ; preds = %1
  store i64 -1, ptr %2, align 8
  br label %20

20:                                               ; preds = %19, %17, %15
  %21 = load i64, ptr %2, align 8
  ret i64 %21
}